target datalayout = "e-m:e-p270:32:32-p271:32:32-p272:64:64-i64:64-i128:128-f80:128-n8:16:32:64-S128"
target triple = "x86_64-unknown-linux-gnu"

%struct.ESPState = type { %struct.DeviceState, [16 x i8], [16 x i8], ptr, ptr, i8, i8, i32, i32, i32, %struct.Fifo8, %struct.SCSIBus, ptr, ptr, %struct.Fifo8, i8, i8, i32, i8, i8, i32, i32, ptr, ptr, ptr, ptr, ptr, i8, i8, i32, i32, i8, i32, i32, [16 x i8], [32 x i8], i32 }
%struct.DeviceState = type { %struct.Object, ptr, ptr, i8, i8, i64, ptr, i32, i8, ptr, %struct.NamedGPIOListHead, %struct.NamedClockListHead, %struct.BusStateHead, i32, i32, i32, %struct.ResettableState, ptr, %struct.MemReentrancyGuard }
%struct.Object = type { ptr, ptr, ptr, i32, ptr }
%struct.NamedGPIOListHead = type { ptr }
%struct.NamedClockListHead = type { ptr }
%struct.BusStateHead = type { ptr }
%struct.ResettableState = type { i32, i8, i8 }
%struct.MemReentrancyGuard = type { i8 }
%struct.SCSIBus = type { %struct.BusState, i32, %struct.SCSISense, ptr, i32 }
%struct.BusState = type { %struct.Object, ptr, ptr, ptr, i32, i8, i8, i32, %union.BusChildHead, %struct.BusStateEntry, %struct.ResettableState }
%union.BusChildHead = type { %struct.QTailQLink }
%struct.QTailQLink = type { ptr, ptr }
%struct.BusStateEntry = type { ptr, ptr }
%struct.SCSISense = type { i8, i8, i8 }
%struct.Fifo8 = type { ptr, i32, i32, i32 }

; Function Attrs: nounwind sspstrong uwtable
define dso_local void @esp_hard_reset(ptr noundef %s) #0 {
entry:
  %s.addr = alloca ptr, align 8
  store ptr %s, ptr %s.addr, align 8
  %0 = load ptr, ptr %s.addr, align 8
  %rregs = getelementptr inbounds %struct.ESPState, ptr %0, i32 0, i32 1
  %arraydecay = getelementptr inbounds [16 x i8], ptr %rregs, i64 0, i64 0
  call void @llvm.memset.p0.i64(ptr align 8 %arraydecay, i8 0, i64 16, i1 false)
  %1 = load ptr, ptr %s.addr, align 8
  %wregs = getelementptr inbounds %struct.ESPState, ptr %1, i32 0, i32 2
  %arraydecay1 = getelementptr inbounds [16 x i8], ptr %wregs, i64 0, i64 0
  call void @llvm.memset.p0.i64(ptr align 8 %arraydecay1, i8 0, i64 16, i1 false)
  %2 = load ptr, ptr %s.addr, align 8
  %tchi_written = getelementptr inbounds %struct.ESPState, ptr %2, i32 0, i32 6
  store i8 0, ptr %tchi_written, align 1
  %3 = load ptr, ptr %s.addr, align 8
  %ti_size = getelementptr inbounds %struct.ESPState, ptr %3, i32 0, i32 7
  store i32 0, ptr %ti_size, align 4
  %4 = load ptr, ptr %s.addr, align 8
  %async_len = getelementptr inbounds %struct.ESPState, ptr %4, i32 0, i32 21
  store i32 0, ptr %async_len, align 8
  %5 = load ptr, ptr %s.addr, align 8
  %fifo = getelementptr inbounds %struct.ESPState, ptr %5, i32 0, i32 10
  call void @fifo8_reset(ptr noundef %fifo)
  %6 = load ptr, ptr %s.addr, align 8
  %cmdfifo = getelementptr inbounds %struct.ESPState, ptr %6, i32 0, i32 14
  call void @fifo8_reset(ptr noundef %cmdfifo)
  %7 = load ptr, ptr %s.addr, align 8
  %dma = getelementptr inbounds %struct.ESPState, ptr %7, i32 0, i32 9
  store i32 0, ptr %dma, align 4
  %8 = load ptr, ptr %s.addr, align 8
  %do_cmd = getelementptr inbounds %struct.ESPState, ptr %8, i32 0, i32 17
  store i32 0, ptr %do_cmd, align 4
  %9 = load ptr, ptr %s.addr, align 8
  %dma_cb = getelementptr inbounds %struct.ESPState, ptr %9, i32 0, i32 26
  store ptr null, ptr %dma_cb, align 8
  %10 = load ptr, ptr %s.addr, align 8
  %rregs2 = getelementptr inbounds %struct.ESPState, ptr %10, i32 0, i32 1
  %arrayidx = getelementptr [16 x i8], ptr %rregs2, i64 0, i64 8
  store i8 7, ptr %arrayidx, align 8
  ret void
}

; Function Attrs: nounwind sspstrong uwtable
define internal void @qemu_irq_lower(ptr noundef %irq) #0 {
entry:
  %irq.addr = alloca ptr, align 8
  store ptr %irq, ptr %irq.addr, align 8
  %0 = load ptr, ptr %irq.addr, align 8
  call void @qemu_set_irq(ptr noundef %0, i32 noundef 0)
  ret void
}

; Function Attrs: nounwind sspstrong uwtable
define internal void @esp_soft_reset(ptr noundef %s) #0 {
entry:
  %s.addr = alloca ptr, align 8
  store ptr %s, ptr %s.addr, align 8
  %0 = load ptr, ptr %s.addr, align 8
  %irq = getelementptr inbounds %struct.ESPState, ptr %0, i32 0, i32 3
  %1 = load ptr, ptr %irq, align 8
  call void @qemu_irq_lower(ptr noundef %1)
  %2 = load ptr, ptr %s.addr, align 8
  %irq_data = getelementptr inbounds %struct.ESPState, ptr %2, i32 0, i32 4
  %3 = load ptr, ptr %irq_data, align 8
  call void @qemu_irq_lower(ptr noundef %3)
  %4 = load ptr, ptr %s.addr, align 8
  call void @esp_hard_reset(ptr noundef %4)
  ret void
}