; Function Attrs: nounwind sspstrong uwtable
define internal fastcc void @esp_soft_reset(ptr noundef initializes((160, 192), (209, 210), (212, 216), (448, 452)) %s) unnamed_addr #0 {
entry:
  %irq = getelementptr inbounds nuw i8, ptr %s, i64 192
  %0 = load ptr, ptr %irq, align 8
  tail call void @qemu_set_irq(ptr noundef %0, i32 noundef 0) #10
  %irq_data = getelementptr inbounds nuw i8, ptr %s, i64 200
  %1 = load ptr, ptr %irq_data, align 8
  tail call void @qemu_set_irq(ptr noundef %1, i32 noundef 0) #10
  %rregs.i = getelementptr inbounds nuw i8, ptr %s, i64 160
  %tchi_written.i = getelementptr inbounds nuw i8, ptr %s, i64 209
  store i8 0, ptr %tchi_written.i, align 1
  %ti_size.i = getelementptr inbounds nuw i8, ptr %s, i64 212
  store i32 0, ptr %ti_size.i, align 4
  %async_len.i = getelementptr inbounds nuw i8, ptr %s, i64 448
  store i32 0, ptr %async_len.i, align 8
  %fifo.i = getelementptr inbounds nuw i8, ptr %s, i64 224
  tail call void @llvm.memset.p0.i64(ptr noundef nonnull align 8 dereferenceable(32) %rregs.i, i8 0, i64 32, i1 false)
  tail call void @fifo8_reset(ptr noundef nonnull %fifo.i) #10
  %cmdfifo.i = getelementptr inbounds nuw i8, ptr %s, i64 408
  tail call void @fifo8_reset(ptr noundef nonnull %cmdfifo.i) #10
  %dma.i = getelementptr inbounds nuw i8, ptr %s, i64 220
  store i32 0, ptr %dma.i, align 4
  %do_cmd.i = getelementptr inbounds nuw i8, ptr %s, i64 436
  store i32 0, ptr %do_cmd.i, align 4
  %dma_cb.i = getelementptr inbounds nuw i8, ptr %s, i64 488
  store ptr null, ptr %dma_cb.i, align 8
  %arrayidx.i = getelementptr i8, ptr %s, i64 168
  store i8 7, ptr %arrayidx.i, align 8
  ret void
}